Certificate:
    Data:
        Version: 1 (0x0)
        Serial Number: 1 (0x1)
    Signature Algorithm: sha1WithRSAEncryption
        Issuer: O=MySQL
        Validity
            Not Before: Jan 29 00:50:23 2015 GMT
            Not After : Jan 29 00:50:23 2025 GMT
        Subject: O=MySQL
        Subject Public Key Info:
            Public Key Algorithm: rsaEncryption
                Public-Key: (2048 bit)
                Modulus:
                    00:a6:70:13:db:2f:e1:a4:57:83:db:ab:12:1a:07:
                    8f:f9:1d:c4:d7:34:03:65:bb:11:47:22:92:2c:9b:
                    f2:b5:65:b0:1b:8c:5b:d3:aa:d2:c5:e1:00:44:8c:
                    e5:e3:06:09:61:0e:61:9b:52:7b:6e:98:46:e6:10:
                    fd:68:6d:f9:4c:68:4d:5f:af:81:8f:34:23:44:b0:
                    b7:e2:9d:de:c2:d9:e2:c3:89:60:55:2d:d4:31:58:
                    a1:5b:8b:d0:01:9b:79:0c:6e:52:72:83:bc:ac:5a:
                    5f:0f:3e:44:21:92:fb:59:6c:c0:aa:45:69:a9:3a:
                    8c:fc:5e:04:27:5f:f1:cd:5e:49:fa:65:cb:c5:f7:
                    e2:c0:23:19:ad:52:51:15:18:7f:9d:dd:59:16:6b:
                    5e:a6:38:40:9a:0b:ee:3a:a8:12:53:ec:a6:bf:fa:
                    69:3a:0b:b0:4d:49:6d:fa:fd:5c:89:03:d5:95:44:
                    d3:78:9c:3b:0e:f6:16:7c:8a:83:86:de:98:5f:b3:
                    ba:8b:33:4c:78:2c:d1:de:05:b7:58:c9:f8:6d:72:
                    3b:8c:9e:45:47:6f:af:7c:23:89:08:11:39:a3:46:
                    d3:20:55:94:c3:4d:60:b8:a4:6e:56:ac:be:a6:da:
                    10:22:eb:a9:d5:44:18:48:2a:5f:b3:86:2b:d2:c4:
                    ea:3d
                Exponent: 65537 (0x10001)
    Signature Algorithm: sha1WithRSAEncryption
         1e:4b:65:8c:d4:ba:ae:1a:b1:a1:0c:6b:b8:1b:ee:6c:c2:4d:
         56:e9:36:0f:b8:2a:e1:c8:cb:37:21:76:83:ce:9c:7a:a8:ad:
         ce:67:e1:ae:3c:ba:e3:52:7d:55:06:04:9b:18:d9:2c:2c:55:
         a3:09:c4:c9:9a:5e:34:72:d3:d5:e0:c5:34:8c:e9:b4:d4:3a:
         fd:66:ca:51:c8:c8:4e:d7:13:80:28:ea:ab:df:0a:57:df:8e:
         46:a7:81:22:78:e9:d4:40:b8:c9:02:a7:4f:45:25:22:45:ac:
         51:92:f4:d3:d2:6c:8b:22:79:f8:dd:cb:be:94:b7:69:00:aa:
         b4:7c:a5:06:35:38:22:d5:72:4a:3f:48:35:ad:58:3f:b3:40:
         44:5e:d9:49:06:c6:6e:bc:c4:b0:30:a9:16:72:9a:b3:6d:dc:
         cd:fa:f7:b4:b8:7b:74:1c:8d:fe:15:6e:ae:a3:6f:c3:32:a1:
         7a:98:8c:83:9f:8f:c1:b1:aa:f0:13:76:5b:ec:a2:e7:7b:9a:
         f5:67:81:a0:2b:79:cf:96:e2:89:53:4b:2f:e2:c3:c1:13:a9:
         f9:90:55:5b:ed:a0:b9:4a:d2:80:d9:f2:09:e4:2e:fa:d5:ed:
         b0:1d:b2:f6:fd:90:a7:31:4e:89:30:59:75:0c:15:4f:31:d6:
         a5:eb:63:46
-----BEGIN CERTIFICATE-----
MIIClDCCAXwCAQEwDQYJKoZIhvcNAQEFBQAwEDEOMAwGA1UECgwFTXlTUUwwHhcN
MTUwMTI5MDA1MDIzWhcNMjUwMTI5MDA1MDIzWjAQMQ4wDAYDVQQKDAVNeVNRTDCC
ASIwDQYJKoZIhvcNAQEBBQADggEPADCCAQoCggEBAKZwE9sv4aRXg9urEhoHj/kd
xNc0A2W7EUcikiyb8rVlsBuMW9Oq0sXhAESM5eMGCWEOYZtSe26YRuYQ/Wht+Uxo
TV+vgY80I0Swt+Kd3sLZ4sOJYFUt1DFYoVuL0AGbeQxuUnKDvKxaXw8+RCGS+1ls
wKpFaak6jPxeBCdf8c1eSfply8X34sAjGa1SURUYf53dWRZrXqY4QJoL7jqoElPs
pr/6aToLsE1Jbfr9XIkD1ZVE03icOw72FnyKg4bemF+zuoszTHgs0d4Ft1jJ+G1y
O4yeRUdvr3wjiQgROaNG0yBVlMNNYLikblasvqbaECLrqdVEGEgqX7OGK9LE6j0C
AwEAATANBgkqhkiG9w0BAQUFAAOCAQEAHktljNS6rhqxoQxruBvubMJNVuk2D7gq
4cjLNyF2g86ceqitzmfhrjy641J9VQYEmxjZLCxVownEyZpeNHLT1eDFNIzptNQ6
/WbKUcjITtcTgCjqq98KV9+ORqeBInjp1EC4yQKnT0UlIkWsUZL009JsiyJ5+N3L
vpS3aQCqtHylBjU4ItVySj9INa1YP7NARF7ZSQbGbrzEsDCpFnKas23czfr3tLh7
dByN/hVurqNvwzKhepiMg5+PwbGq8BN2W+yi53ua9WeBoCt5z5biiVNLL+LDwROp
+ZBVW+2guUrSgNnyCeQu+tXtsB2y9v2QpzFOiTBZdQwVTzHWpetjRg==
-----END CERTIFICATE-----
