Certificate:
    Data:
        Version: 1 (0x0)
        Serial Number: 1 (0x1)
    Signature Algorithm: sha1WithRSAEncryption
        Issuer: O=MySQL
        Validity
            Not Before: Jan 29 00:42:14 2015 GMT
            Not After : Jan 29 00:42:14 2025 GMT
        Subject: O=MySQL
        Subject Public Key Info:
            Public Key Algorithm: rsaEncryption
                Public-Key: (2048 bit)
                Modulus:
                    00:d5:d9:76:9f:61:f3:b1:cf:6b:42:eb:1d:f3:4e:
                    09:e9:b3:29:2e:5b:14:02:1f:5a:76:eb:31:80:69:
                    bb:a1:b3:66:cd:5f:b8:2c:e8:6e:d2:04:40:75:b6:
                    b7:93:8c:3a:ea:d7:b4:9d:b3:fa:5b:76:2f:ea:2f:
                    25:38:35:1c:10:58:4d:10:72:43:1f:66:94:81:8e:
                    7f:8a:ee:de:35:6a:85:c3:57:f2:4e:9d:a7:f6:5e:
                    c5:c3:b2:cb:ea:f6:93:a2:86:c4:83:38:2c:1e:b5:
                    27:bc:9d:5e:07:27:2a:36:96:9c:19:1b:32:78:73:
                    82:20:c9:10:a3:49:ca:de:b0:ae:08:d7:53:71:0c:
                    ed:83:2f:4c:26:53:f9:31:e4:35:32:7f:b6:e0:a0:
                    36:ba:19:00:a8:ff:2e:d9:dc:2b:10:e2:40:fd:29:
                    2c:8f:95:e1:8d:76:46:63:37:3f:1b:60:d0:ab:cd:
                    1d:51:50:8b:3c:0a:7a:c2:2c:c7:f1:fd:e4:a8:dd:
                    3f:9c:a1:cb:80:e2:63:3d:f3:e1:ad:5c:9a:ab:20:
                    f4:d5:e6:4a:1a:e4:f9:3c:03:b5:1d:cb:6c:d9:e1:
                    03:e6:e9:d2:ce:36:36:9e:2b:75:77:85:2c:3a:a8:
                    c5:65:5f:8c:38:92:7e:c2:62:11:a2:06:a5:b9:1c:
                    6d:c5
                Exponent: 65537 (0x10001)
    Signature Algorithm: sha1WithRSAEncryption
         85:e9:e7:57:f7:44:2b:22:30:fe:e1:6d:21:d3:d2:be:4c:66:
         73:a4:77:79:4a:49:ab:38:44:6e:c8:96:db:a8:b4:d4:72:03:
         2c:28:4c:ec:fb:c4:21:da:98:fd:77:f0:8c:93:a2:e4:70:3c:
         58:f9:ac:85:28:d0:ab:c9:3b:14:c6:58:dc:1a:9d:16:dc:53:
         28:24:6d:d7:8b:91:31:90:b8:ed:6b:b4:70:9a:22:3c:e6:db:
         78:d0:89:b1:8b:73:e1:e5:5f:fa:c9:d5:ca:ff:e0:69:49:64:
         e9:e4:be:35:84:a3:6b:c2:ee:28:c0:1f:12:d4:13:07:10:f6:
         57:f5:27:86:80:2d:d4:69:33:37:74:80:08:68:18:bf:21:b9:
         12:9a:02:1a:c8:7d:cc:76:73:66:fe:35:0a:d9:bb:68:80:de:
         f1:12:70:2e:4c:83:47:e2:fc:43:94:43:e3:62:97:2a:86:27:
         7a:70:6f:16:d8:8e:e9:e0:7d:17:75:37:6b:74:cc:8e:cc:0c:
         02:7b:33:dd:5e:cd:2d:67:5e:b5:a3:34:da:f7:9c:ae:3c:ed:
         aa:40:68:69:80:34:86:04:7c:dc:81:11:67:ed:2d:ca:7a:e5:
         8a:94:80:e3:52:c9:da:1c:81:d4:28:f7:2c:92:07:d6:d1:9e:
         bd:d2:0e:8e
-----BEGIN CERTIFICATE-----
MIIClDCCAXwCAQEwDQYJKoZIhvcNAQEFBQAwEDEOMAwGA1UECgwFTXlTUUwwHhcN
MTUwMTI5MDA0MjE0WhcNMjUwMTI5MDA0MjE0WjAQMQ4wDAYDVQQKDAVNeVNRTDCC
ASIwDQYJKoZIhvcNAQEBBQADggEPADCCAQoCggEBANXZdp9h87HPa0LrHfNOCemz
KS5bFAIfWnbrMYBpu6GzZs1fuCzobtIEQHW2t5OMOurXtJ2z+lt2L+ovJTg1HBBY
TRByQx9mlIGOf4ru3jVqhcNX8k6dp/ZexcOyy+r2k6KGxIM4LB61J7ydXgcnKjaW
nBkbMnhzgiDJEKNJyt6wrgjXU3EM7YMvTCZT+THkNTJ/tuCgNroZAKj/LtncKxDi
QP0pLI+V4Y12RmM3Pxtg0KvNHVFQizwKesIsx/H95KjdP5yhy4DiYz3z4a1cmqsg
9NXmShrk+TwDtR3LbNnhA+bp0s42Np4rdXeFLDqoxWVfjDiSfsJiEaIGpbkcbcUC
AwEAATANBgkqhkiG9w0BAQUFAAOCAQEAhennV/dEKyIw/uFtIdPSvkxmc6R3eUpJ
qzhEbsiW26i01HIDLChM7PvEIdqY/XfwjJOi5HA8WPmshSjQq8k7FMZY3BqdFtxT
KCRt14uRMZC47Wu0cJoiPObbeNCJsYtz4eVf+snVyv/gaUlk6eS+NYSja8LuKMAf
EtQTBxD2V/UnhoAt1GkzN3SACGgYvyG5EpoCGsh9zHZzZv41Ctm7aIDe8RJwLkyD
R+L8Q5RD42KXKoYnenBvFtiO6eB9F3U3a3TMjswMAnsz3V7NLWdetaM02vecrjzt
qkBoaYA0hgR83IERZ+0tynrlipSA41LJ2hyB1Cj3LJIH1tGevdIOjg==
-----END CERTIFICATE-----
